target datalayout = "e-m:e-p270:32:32-p271:32:32-p272:64:64-i64:64-i128:128-f80:128-n8:16:32:64-S128"
target triple = "x86_64-pc-linux-gnu"

%"class.std::__cxx11::basic_string" = type { %"struct.std::__cxx11::basic_string<char>::_Alloc_hider", i64, %union.anon.0 }
%"struct.std::__cxx11::basic_string<char>::_Alloc_hider" = type { ptr }
%union.anon.0 = type { i64, [8 x i8] }
%struct.__mbstate_t = type { i32, %union.anon }
%union.anon = type { i32 }
%"class.boost::unit_test::basic_cstring" = type { ptr, ptr }
%"class.boost::test_tools::assertion_result" = type { %"class.boost::test_tools::assertion_result::readonly_property65", %"class.boost::shared_ptr" }
%"class.boost::test_tools::assertion_result::readonly_property65" = type { %"class.boost::unit_test::readonly_property" }
%"class.boost::unit_test::readonly_property" = type { %"class.boost::unit_test::class_property" }
%"class.boost::unit_test::class_property" = type { i8 }
%"class.boost::shared_ptr" = type { ptr, %"class.boost::detail::shared_count" }
%"class.boost::detail::shared_count" = type { ptr }
%"class.std::basic_ostream.base" = type { ptr }
%"class.std::__cxx11::basic_stringbuf" = type { %"class.std::basic_streambuf", i32, %"class.std::__cxx11::basic_string" }
%"class.std::basic_streambuf" = type { ptr, ptr, ptr, ptr, ptr, ptr, ptr, %"class.std::locale" }
%"class.std::locale" = type { ptr }
%"class.std::basic_ios" = type { %"class.std::ios_base", ptr, i8, i8, ptr, ptr, ptr, ptr }
%"class.std::ios_base" = type { ptr, i64, i64, i32, i32, i32, ptr, %"struct.std::ios_base::_Words", [8 x %"struct.std::ios_base::_Words"], i32, ptr, %"class.std::locale" }
%"struct.std::ios_base::_Words" = type { ptr, i64 }
%"class.boost::test_tools::output_test_stream" = type { %"class.std::__cxx11::basic_ostringstream.base", ptr, %"class.std::basic_ios" }
%"class.std::__cxx11::basic_ostringstream.base" = type { %"class.std::basic_ostream.base", %"class.std::__cxx11::basic_stringbuf" }
%"struct.boost::test_tools::output_test_stream::Impl" = type { %"class.std::basic_fstream", i8, i8, %"class.std::__cxx11::basic_string" }
%"class.std::basic_fstream" = type { %"class.std::basic_iostream.base", %"class.std::basic_filebuf", %"class.std::basic_ios" }
%"class.std::basic_iostream.base" = type { %"class.std::basic_istream.base", %"class.std::basic_ostream.base" }
%"class.std::basic_istream.base" = type { ptr, i64 }
%"class.std::basic_filebuf" = type { %"class.std::basic_streambuf", %union.pthread_mutex_t, %"class.std::__basic_file", i32, %struct.__mbstate_t, %struct.__mbstate_t, %struct.__mbstate_t, ptr, i64, i8, i8, i8, i8, ptr, ptr, i8, ptr, ptr, i64, ptr, ptr }
%union.pthread_mutex_t = type { %struct.__pthread_mutex_s }
%struct.__pthread_mutex_s = type { i32, i32, i32, i32, i32, i16, i16, %struct.__pthread_internal_list }
%struct.__pthread_internal_list = type { ptr, ptr }
%"class.std::__basic_file" = type <{ ptr, i8, [7 x i8] }>

; Function Attrs: mustprogress nounwind uwtable
define linkonce_odr hidden void @_ZN5boost9unit_test14class_propertyIbEC2Eb(ptr noundef nonnull align 1 dereferenceable(1) %0, i1 noundef zeroext %1) unnamed_addr #4 comdat align 2 {
  %3 = alloca ptr, align 8
  %4 = alloca i8, align 1
  store ptr %0, ptr %3, align 8, !tbaa !3
  %5 = zext i1 %1 to i8
  store i8 %5, ptr %4, align 1, !tbaa !7
  %6 = load ptr, ptr %3, align 8
  %7 = getelementptr inbounds nuw %"class.boost::unit_test::class_property", ptr %6, i32 0, i32 0
  %8 = load i8, ptr %4, align 1, !tbaa !7, !range !11, !noundef !12
  %9 = trunc i8 %8 to i1
  %10 = zext i1 %9 to i8
  store i8 %10, ptr %7, align 1, !tbaa !91
  ret void
}

; Function Attrs: mustprogress nounwind uwtable
define linkonce_odr hidden void @_ZN5boost6detail12shared_countC2Ev(ptr noundef nonnull align 8 dereferenceable(8) %0) unnamed_addr #4 comdat align 2 {
  %2 = alloca ptr, align 8
  store ptr %0, ptr %2, align 8, !tbaa !3
  %3 = load ptr, ptr %2, align 8
  %4 = getelementptr inbounds nuw %"class.boost::detail::shared_count", ptr %3, i32 0, i32 0
  store ptr null, ptr %4, align 8, !tbaa !104
  ret void
}

; Function Attrs: mustprogress uwtable
define linkonce_odr hidden void @_ZN5boost9unit_test17readonly_propertyIbEC2Eb(ptr noundef nonnull align 1 dereferenceable(1) %0, i1 noundef zeroext %1) unnamed_addr #5 comdat align 2 {
  %3 = alloca ptr, align 8
  %4 = alloca i8, align 1
  store ptr %0, ptr %3, align 8, !tbaa !3
  %5 = zext i1 %1 to i8
  store i8 %5, ptr %4, align 1, !tbaa !7
  %6 = load ptr, ptr %3, align 8
  %7 = load i8, ptr %4, align 1, !tbaa !7, !range !11, !noundef !12
  %8 = trunc i8 %7 to i1
  call void @_ZN5boost9unit_test14class_propertyIbEC2Eb(ptr noundef nonnull align 1 dereferenceable(1) %6, i1 noundef zeroext %8)
  ret void
}

; Function Attrs: mustprogress nounwind uwtable
define linkonce_odr hidden noundef zeroext i1 @_ZN5boost9unit_test9ut_detail20bcs_char_traits_implIKcE2ltEcc(i8 noundef signext %0, i8 noundef signext %1) #4 comdat align 2 {
  %3 = alloca i8, align 1
  %4 = alloca i8, align 1
  store i8 %0, ptr %3, align 1, !tbaa !15
  store i8 %1, ptr %4, align 1, !tbaa !15
  %5 = load i8, ptr %3, align 1, !tbaa !15
  %6 = sext i8 %5 to i32
  %7 = load i8, ptr %4, align 1, !tbaa !15
  %8 = sext i8 %7 to i32
  %9 = icmp slt i32 %6, %8
  ret i1 %9
}

; Function Attrs: mustprogress nounwind uwtable
define linkonce_odr hidden noundef zeroext i1 @_ZN5boost9unit_test9ut_detail20bcs_char_traits_implIKcE2eqEcc(i8 noundef signext %0, i8 noundef signext %1) #4 comdat align 2 {
  %3 = alloca i8, align 1
  %4 = alloca i8, align 1
  store i8 %0, ptr %3, align 1, !tbaa !15
  store i8 %1, ptr %4, align 1, !tbaa !15
  %5 = load i8, ptr %3, align 1, !tbaa !15
  %6 = sext i8 %5 to i32
  %7 = load i8, ptr %4, align 1, !tbaa !15
  %8 = sext i8 %7 to i32
  %9 = icmp eq i32 %6, %8
  ret i1 %9
}

; Function Attrs: noinline noreturn nounwind uwtable
define linkonce_odr hidden void @__clang_call_terminate(ptr noundef %0) #12 comdat {
  %2 = call ptr @__cxa_begin_catch(ptr %0) #3
  call void @_ZSt9terminatev() #22
  unreachable
}

; Function Attrs: mustprogress nounwind uwtable
define available_externally noundef ptr @_ZNKSt7__cxx1112basic_stringIcSt11char_traitsIcESaIcEE7_M_dataEv(ptr noundef nonnull align 8 dereferenceable(32) %0) #4 align 2 {
  %2 = alloca ptr, align 8
  store ptr %0, ptr %2, align 8, !tbaa !3
  %3 = load ptr, ptr %2, align 8
  %4 = getelementptr inbounds nuw %"class.std::__cxx11::basic_string", ptr %3, i32 0, i32 0
  %5 = getelementptr inbounds nuw %"struct.std::__cxx11::basic_string<char>::_Alloc_hider", ptr %4, i32 0, i32 0
  %6 = load ptr, ptr %5, align 8, !tbaa !111
  ret ptr %6
}

; Function Attrs: mustprogress nounwind uwtable
define linkonce_odr hidden void @_ZN5boost10shared_ptrINS_23basic_wrap_stringstreamIcEEEC2Ev(ptr noundef nonnull align 8 dereferenceable(16) %0) unnamed_addr #4 comdat align 2 {
  %2 = alloca ptr, align 8
  store ptr %0, ptr %2, align 8, !tbaa !3
  %3 = load ptr, ptr %2, align 8
  %4 = getelementptr inbounds nuw %"class.boost::shared_ptr", ptr %3, i32 0, i32 0
  store ptr null, ptr %4, align 8, !tbaa !101
  %5 = getelementptr inbounds nuw %"class.boost::shared_ptr", ptr %3, i32 0, i32 1
  call void @_ZN5boost6detail12shared_countC2Ev(ptr noundef nonnull align 8 dereferenceable(8) %5) #3
  ret void
}

; Function Attrs: mustprogress uwtable
define linkonce_odr hidden void @_ZN5boost10test_tools16assertion_result19readonly_property65C2Eb(ptr noundef nonnull align 1 dereferenceable(1) %0, i1 noundef zeroext %1) unnamed_addr #5 comdat align 2 {
  %3 = alloca ptr, align 8
  %4 = alloca i8, align 1
  store ptr %0, ptr %3, align 8, !tbaa !3
  %5 = zext i1 %1 to i8
  store i8 %5, ptr %4, align 1, !tbaa !7
  %6 = load ptr, ptr %3, align 8
  %7 = load i8, ptr %4, align 1, !tbaa !7, !range !11, !noundef !12
  %8 = trunc i8 %7 to i1
  call void @_ZN5boost9unit_test17readonly_propertyIbEC2Eb(ptr noundef nonnull align 1 dereferenceable(1) %6, i1 noundef zeroext %8)
  ret void
}

; Function Attrs: mustprogress uwtable
define linkonce_odr hidden noundef i32 @_ZN5boost9unit_test9ut_detail20bcs_char_traits_implIKcE7compareEPS3_S5_m(ptr noundef %0, ptr noundef %1, i64 noundef %2) #5 comdat align 2 {
  %4 = alloca i32, align 4
  %5 = alloca ptr, align 8
  %6 = alloca ptr, align 8
  %7 = alloca i64, align 8
  store ptr %0, ptr %5, align 8, !tbaa !3
  store ptr %1, ptr %6, align 8, !tbaa !3
  store i64 %2, ptr %7, align 8, !tbaa !18
  br label %8

8:                                                ; preds = %24, %3
  %9 = load i64, ptr %7, align 8, !tbaa !18
  %10 = icmp ugt i64 %9, 0
  br i1 %10, label %11, label %31

11:                                               ; preds = %8
  %12 = load ptr, ptr %5, align 8, !tbaa !3
  %13 = load i8, ptr %12, align 1, !tbaa !15
  %14 = load ptr, ptr %6, align 8, !tbaa !3
  %15 = load i8, ptr %14, align 1, !tbaa !15
  %16 = call noundef zeroext i1 @_ZN5boost9unit_test9ut_detail20bcs_char_traits_implIKcE2eqEcc(i8 noundef signext %13, i8 noundef signext %15)
  br i1 %16, label %24, label %17

17:                                               ; preds = %11
  %18 = load ptr, ptr %5, align 8, !tbaa !3
  %19 = load i8, ptr %18, align 1, !tbaa !15
  %20 = load ptr, ptr %6, align 8, !tbaa !3
  %21 = load i8, ptr %20, align 1, !tbaa !15
  %22 = call noundef zeroext i1 @_ZN5boost9unit_test9ut_detail20bcs_char_traits_implIKcE2ltEcc(i8 noundef signext %19, i8 noundef signext %21)
  %23 = select i1 %22, i32 -1, i32 1
  store i32 %23, ptr %4, align 4
  br label %32

24:                                               ; preds = %11
  %25 = load ptr, ptr %5, align 8, !tbaa !3
  %26 = getelementptr inbounds nuw i8, ptr %25, i32 1
  store ptr %26, ptr %5, align 8, !tbaa !3
  %27 = load ptr, ptr %6, align 8, !tbaa !3
  %28 = getelementptr inbounds nuw i8, ptr %27, i32 1
  store ptr %28, ptr %6, align 8, !tbaa !3
  %29 = load i64, ptr %7, align 8, !tbaa !18
  %30 = add i64 %29, -1
  store i64 %30, ptr %7, align 8, !tbaa !18
  br label %8, !llvm.loop !160

31:                                               ; preds = %8
  store i32 0, ptr %4, align 4
  br label %32

32:                                               ; preds = %31, %17
  %33 = load i32, ptr %4, align 4
  ret i32 %33
}

; Function Attrs: inlinehint mustprogress nounwind uwtable
define linkonce_odr hidden noundef ptr @_ZNK5boost9unit_test13basic_cstringIKcE5beginEv(ptr noundef nonnull align 8 dereferenceable(16) %0) #9 comdat align 2 {
  %2 = alloca ptr, align 8
  store ptr %0, ptr %2, align 8, !tbaa !3
  %3 = load ptr, ptr %2, align 8
  %4 = getelementptr inbounds nuw %"class.boost::unit_test::basic_cstring", ptr %3, i32 0, i32 0
  %5 = load ptr, ptr %4, align 8, !tbaa !26
  ret ptr %5
}

; Function Attrs: inlinehint mustprogress nounwind uwtable
define linkonce_odr hidden noundef i64 @_ZNK5boost9unit_test13basic_cstringIKcE4sizeEv(ptr noundef nonnull align 8 dereferenceable(16) %0) #9 comdat align 2 {
  %2 = alloca ptr, align 8
  store ptr %0, ptr %2, align 8, !tbaa !3
  %3 = load ptr, ptr %2, align 8
  %4 = getelementptr inbounds nuw %"class.boost::unit_test::basic_cstring", ptr %3, i32 0, i32 1
  %5 = load ptr, ptr %4, align 8, !tbaa !28
  %6 = getelementptr inbounds nuw %"class.boost::unit_test::basic_cstring", ptr %3, i32 0, i32 0
  %7 = load ptr, ptr %6, align 8, !tbaa !26
  %8 = ptrtoint ptr %5 to i64
  %9 = ptrtoint ptr %7 to i64
  %10 = sub i64 %8, %9
  ret i64 %10
}

; Function Attrs: mustprogress nounwind uwtable
define available_externally noundef i64 @_ZNKSt7__cxx1112basic_stringIcSt11char_traitsIcESaIcEE4sizeEv(ptr noundef nonnull align 8 dereferenceable(32) %0) #4 align 2 {
  %2 = alloca ptr, align 8
  store ptr %0, ptr %2, align 8, !tbaa !3
  %3 = load ptr, ptr %2, align 8
  %4 = getelementptr inbounds nuw %"class.std::__cxx11::basic_string", ptr %3, i32 0, i32 1
  %5 = load i64, ptr %4, align 8, !tbaa !76
  ret i64 %5
}

; Function Attrs: mustprogress nounwind uwtable
define available_externally noundef ptr @_ZNKSt7__cxx1112basic_stringIcSt11char_traitsIcESaIcEE5c_strEv(ptr noundef nonnull align 8 dereferenceable(32) %0) #4 align 2 personality ptr @__gxx_personality_v0 {
  %2 = alloca ptr, align 8
  store ptr %0, ptr %2, align 8, !tbaa !3
  %3 = load ptr, ptr %2, align 8
  %4 = invoke noundef ptr @_ZNKSt7__cxx1112basic_stringIcSt11char_traitsIcESaIcEE7_M_dataEv(ptr noundef nonnull align 8 dereferenceable(32) %3)
          to label %5 unwind label %6

5:                                                ; preds = %1
  ret ptr %4

6:                                                ; preds = %1
  %7 = landingpad { ptr, i32 }
          catch ptr null
  %8 = extractvalue { ptr, i32 } %7, 0
  call void @__clang_call_terminate(ptr %8) #22
  unreachable
}

; Function Attrs: mustprogress uwtable
define linkonce_odr hidden void @_ZN5boost10test_tools16assertion_resultC2Eb(ptr noundef nonnull align 8 dereferenceable(24) %0, i1 noundef zeroext %1) unnamed_addr #5 comdat align 2 {
  %3 = alloca ptr, align 8
  %4 = alloca i8, align 1
  store ptr %0, ptr %3, align 8, !tbaa !3
  %5 = zext i1 %1 to i8
  store i8 %5, ptr %4, align 1, !tbaa !7
  %6 = load ptr, ptr %3, align 8
  %7 = getelementptr inbounds nuw %"class.boost::test_tools::assertion_result", ptr %6, i32 0, i32 0
  %8 = load i8, ptr %4, align 1, !tbaa !7, !range !11, !noundef !12
  %9 = trunc i8 %8 to i1
  call void @_ZN5boost10test_tools16assertion_result19readonly_property65C2Eb(ptr noundef nonnull align 1 dereferenceable(1) %7, i1 noundef zeroext %9)
  %10 = getelementptr inbounds nuw %"class.boost::test_tools::assertion_result", ptr %6, i32 0, i32 1
  call void @_ZN5boost10shared_ptrINS_23basic_wrap_stringstreamIcEEEC2Ev(ptr noundef nonnull align 8 dereferenceable(16) %10) #3
  ret void
}

; Function Attrs: inlinehint mustprogress uwtable
define linkonce_odr hidden noundef zeroext i1 @_ZN5boost9unit_testeqIKcS2_EEbRKNS0_13basic_cstringIT_EERKNS3_IT0_EE(ptr noundef nonnull align 8 dereferenceable(16) %0, ptr noundef nonnull align 8 dereferenceable(16) %1) #6 comdat {
  %3 = alloca ptr, align 8
  %4 = alloca ptr, align 8
  store ptr %0, ptr %3, align 8, !tbaa !3
  store ptr %1, ptr %4, align 8, !tbaa !3
  %5 = load ptr, ptr %3, align 8, !tbaa !3
  %6 = call noundef i64 @_ZNK5boost9unit_test13basic_cstringIKcE4sizeEv(ptr noundef nonnull align 8 dereferenceable(16) %5)
  %7 = load ptr, ptr %4, align 8, !tbaa !3
  %8 = call noundef i64 @_ZNK5boost9unit_test13basic_cstringIKcE4sizeEv(ptr noundef nonnull align 8 dereferenceable(16) %7)
  %9 = icmp eq i64 %6, %8
  br i1 %9, label %10, label %19

10:                                               ; preds = %2
  %11 = load ptr, ptr %3, align 8, !tbaa !3
  %12 = call noundef ptr @_ZNK5boost9unit_test13basic_cstringIKcE5beginEv(ptr noundef nonnull align 8 dereferenceable(16) %11)
  %13 = load ptr, ptr %4, align 8, !tbaa !3
  %14 = call noundef ptr @_ZNK5boost9unit_test13basic_cstringIKcE5beginEv(ptr noundef nonnull align 8 dereferenceable(16) %13)
  %15 = load ptr, ptr %3, align 8, !tbaa !3
  %16 = call noundef i64 @_ZNK5boost9unit_test13basic_cstringIKcE4sizeEv(ptr noundef nonnull align 8 dereferenceable(16) %15)
  %17 = call noundef i32 @_ZN5boost9unit_test9ut_detail20bcs_char_traits_implIKcE7compareEPS3_S5_m(ptr noundef %12, ptr noundef %14, i64 noundef %16)
  %18 = icmp eq i32 %17, 0
  br label %19

19:                                               ; preds = %10, %2
  %20 = phi i1 [ false, %2 ], [ %18, %10 ]
  ret i1 %20
}

; Function Attrs: inlinehint mustprogress nounwind uwtable
define linkonce_odr hidden void @_ZN5boost9unit_test13basic_cstringIKcEC2ERKNSt7__cxx1112basic_stringIcSt11char_traitsIcESaIcEEE(ptr noundef nonnull align 8 dereferenceable(16) %0, ptr noundef nonnull align 8 dereferenceable(32) %1) unnamed_addr #9 comdat align 2 {
  %3 = alloca ptr, align 8
  %4 = alloca ptr, align 8
  store ptr %0, ptr %3, align 8, !tbaa !3
  store ptr %1, ptr %4, align 8, !tbaa !3
  %5 = load ptr, ptr %3, align 8
  %6 = getelementptr inbounds nuw %"class.boost::unit_test::basic_cstring", ptr %5, i32 0, i32 0
  %7 = load ptr, ptr %4, align 8, !tbaa !3
  %8 = call noundef ptr @_ZNKSt7__cxx1112basic_stringIcSt11char_traitsIcESaIcEE5c_strEv(ptr noundef nonnull align 8 dereferenceable(32) %7) #3
  store ptr %8, ptr %6, align 8, !tbaa !26
  %9 = getelementptr inbounds nuw %"class.boost::unit_test::basic_cstring", ptr %5, i32 0, i32 1
  %10 = getelementptr inbounds nuw %"class.boost::unit_test::basic_cstring", ptr %5, i32 0, i32 0
  %11 = load ptr, ptr %10, align 8, !tbaa !26
  %12 = load ptr, ptr %4, align 8, !tbaa !3
  %13 = call noundef i64 @_ZNKSt7__cxx1112basic_stringIcSt11char_traitsIcESaIcEE4sizeEv(ptr noundef nonnull align 8 dereferenceable(32) %12) #3
  %14 = getelementptr inbounds nuw i8, ptr %11, i64 %13
  store ptr %14, ptr %9, align 8, !tbaa !28
  ret void
}

; Function Attrs: mustprogress uwtable
define void @_ZN5boost10test_tools18output_test_stream8is_equalENS_9unit_test13basic_cstringIKcEEb(ptr dead_on_unwind noalias writable sret(%"class.boost::test_tools::assertion_result") align 8 %0, ptr noundef nonnull align 8 dereferenceable(120) %1, ptr noundef %2, i1 noundef zeroext %3) unnamed_addr #5 align 2 personality ptr @__gxx_personality_v0 {
  %5 = alloca ptr, align 8
  %6 = alloca ptr, align 8
  %7 = alloca ptr, align 8
  %8 = alloca i8, align 1
  %9 = alloca i1, align 1
  %10 = alloca %"class.boost::unit_test::basic_cstring", align 8
  %11 = alloca ptr, align 8
  %12 = alloca i32, align 4
  store ptr %0, ptr %5, align 8
  store ptr %1, ptr %6, align 8, !tbaa !3
  store ptr %2, ptr %7, align 8, !tbaa !3
  %13 = zext i1 %3 to i8
  store i8 %13, ptr %8, align 1, !tbaa !7
  %14 = load ptr, ptr %6, align 8
  %15 = load ptr, ptr %14, align 8, !tbaa !9
  %16 = getelementptr inbounds ptr, ptr %15, i64 7
  %17 = load ptr, ptr %16, align 8
  call void %17(ptr noundef nonnull align 8 dereferenceable(120) %14)
  store i1 false, ptr %9, align 1
  call void @llvm.lifetime.start.p0(i64 16, ptr %10) #3
  %18 = getelementptr inbounds nuw %"class.boost::test_tools::output_test_stream", ptr %14, i32 0, i32 1
  %19 = load ptr, ptr %18, align 8, !tbaa !44
  %20 = getelementptr inbounds nuw %"struct.boost::test_tools::output_test_stream::Impl", ptr %19, i32 0, i32 3
  call void @_ZN5boost9unit_test13basic_cstringIKcEC2ERKNSt7__cxx1112basic_stringIcSt11char_traitsIcESaIcEEE(ptr noundef nonnull align 8 dereferenceable(16) %10, ptr noundef nonnull align 8 dereferenceable(32) %20)
  %21 = call noundef zeroext i1 @_ZN5boost9unit_testeqIKcS2_EEbRKNS0_13basic_cstringIT_EERKNS3_IT0_EE(ptr noundef nonnull align 8 dereferenceable(16) %10, ptr noundef nonnull align 8 dereferenceable(16) %2)
  call void @_ZN5boost10test_tools16assertion_resultC2Eb(ptr noundef nonnull align 8 dereferenceable(24) %0, i1 noundef zeroext %21)
  call void @llvm.lifetime.end.p0(i64 16, ptr %10) #3
  %22 = getelementptr inbounds nuw %"class.boost::test_tools::output_test_stream", ptr %14, i32 0, i32 1
  %23 = load ptr, ptr %22, align 8, !tbaa !44
  invoke void @_ZN5boost10test_tools18output_test_stream4Impl14check_and_fillERNS0_16assertion_resultE(ptr noundef nonnull align 8 dereferenceable(568) %23, ptr noundef nonnull align 8 dereferenceable(24) %0)
          to label %24 unwind label %29

24:                                               ; preds = %4
  %25 = load i8, ptr %8, align 1, !tbaa !7, !range !11, !noundef !12
  %26 = trunc i8 %25 to i1
  br i1 %26, label %27, label %33

27:                                               ; preds = %24
  invoke void @_ZN5boost10test_tools18output_test_stream5flushEv(ptr noundef nonnull align 8 dereferenceable(120) %14)
          to label %28 unwind label %29

28:                                               ; preds = %27
  br label %33

29:                                               ; preds = %27, %4
  %30 = landingpad { ptr, i32 }
          cleanup
  %31 = extractvalue { ptr, i32 } %30, 0
  store ptr %31, ptr %11, align 8
  %32 = extractvalue { ptr, i32 } %30, 1
  store i32 %32, ptr %12, align 4
  call void @_ZN5boost10test_tools16assertion_resultD2Ev(ptr noundef nonnull align 8 dereferenceable(24) %0) #3
  br label %37

33:                                               ; preds = %28, %24
  store i1 true, ptr %9, align 1
  %34 = load i1, ptr %9, align 1
  br i1 %34, label %36, label %35

35:                                               ; preds = %33
  call void @_ZN5boost10test_tools16assertion_resultD2Ev(ptr noundef nonnull align 8 dereferenceable(24) %0) #3
  br label %36

36:                                               ; preds = %35, %33
  ret void

37:                                               ; preds = %29
  %38 = load ptr, ptr %11, align 8
  %39 = load i32, ptr %12, align 4
  %40 = insertvalue { ptr, i32 } poison, ptr %38, 0
  %41 = insertvalue { ptr, i32 } %40, i32 %39, 1
  resume { ptr, i32 } %41
}