; Function Attrs: mustprogress uwtable
define void @_ZN5boost10test_tools18output_test_stream8is_equalENS_9unit_test13basic_cstringIKcEEb(ptr dead_on_unwind noalias writable sret(%"class.boost::test_tools::assertion_result") align 8 %0, ptr noundef nonnull align 8 dereferenceable(120) %1, ptr nocapture noundef readonly %2, i1 noundef zeroext %3) unnamed_addr #3 align 2 personality ptr @__gxx_personality_v0 {
  %5 = load ptr, ptr %1, align 8, !tbaa !3
  %6 = getelementptr inbounds i8, ptr %5, i64 56
  %7 = load ptr, ptr %6, align 8
  tail call void %7(ptr noundef nonnull align 8 dereferenceable(120) %1)
  %8 = getelementptr inbounds nuw i8, ptr %1, i64 112
  %9 = load ptr, ptr %8, align 8, !tbaa !130
  %10 = getelementptr inbounds nuw i8, ptr %9, i64 544
  %11 = load i64, ptr %10, align 8, !tbaa !22
  %12 = getelementptr inbounds nuw i8, ptr %2, i64 8
  %13 = load ptr, ptr %12, align 8, !tbaa !31
  %14 = load ptr, ptr %2, align 8, !tbaa !29
  %15 = ptrtoint ptr %13 to i64
  %16 = ptrtoint ptr %14 to i64
  %17 = sub i64 %15, %16
  %18 = icmp eq i64 %11, %17
  br i1 %18, label %19, label %_ZN5boost9unit_testeqIKcS2_EEbRKNS0_13basic_cstringIT_EERKNS3_IT0_EE.exit

19:                                               ; preds = %4
  %.not12.i.i = icmp eq i64 %11, 0
  br i1 %.not12.i.i, label %_ZN5boost9unit_testeqIKcS2_EEbRKNS0_13basic_cstringIT_EERKNS3_IT0_EE.exit, label %.lr.ph.i.i.preheader

.lr.ph.i.i.preheader:                             ; preds = %19
  %20 = getelementptr inbounds nuw i8, ptr %9, i64 536
  %21 = load ptr, ptr %20, align 8, !tbaa !20
  br label %.lr.ph.i.i

.lr.ph.i.i:                                       ; preds = %.lr.ph.i.i.preheader, %25
  %.015.i.i = phi i64 [ %28, %25 ], [ %11, %.lr.ph.i.i.preheader ]
  %.0814.i.i = phi ptr [ %27, %25 ], [ %14, %.lr.ph.i.i.preheader ]
  %.0913.i.i = phi ptr [ %26, %25 ], [ %21, %.lr.ph.i.i.preheader ]
  %22 = load i8, ptr %.0913.i.i, align 1, !tbaa !9
  %23 = load i8, ptr %.0814.i.i, align 1, !tbaa !9
  %24 = icmp eq i8 %22, %23
  br i1 %24, label %25, label %_ZN5boost9unit_testeqIKcS2_EEbRKNS0_13basic_cstringIT_EERKNS3_IT0_EE.exit

25:                                               ; preds = %.lr.ph.i.i
  %26 = getelementptr inbounds nuw i8, ptr %.0913.i.i, i64 1
  %27 = getelementptr inbounds nuw i8, ptr %.0814.i.i, i64 1
  %28 = add i64 %.015.i.i, -1
  %.not.i.i = icmp eq i64 %28, 0
  br i1 %.not.i.i, label %_ZN5boost9unit_testeqIKcS2_EEbRKNS0_13basic_cstringIT_EERKNS3_IT0_EE.exit, label %.lr.ph.i.i, !llvm.loop !124

_ZN5boost9unit_testeqIKcS2_EEbRKNS0_13basic_cstringIT_EERKNS3_IT0_EE.exit: ; preds = %.lr.ph.i.i, %25, %4, %19
  %29 = phi i8 [ 0, %4 ], [ 1, %19 ], [ 0, %.lr.ph.i.i ], [ 1, %25 ]
  store i8 %29, ptr %0, align 8, !tbaa !23
  %30 = getelementptr inbounds nuw i8, ptr %0, i64 8
  tail call void @llvm.memset.p0.i64(ptr noundef nonnull align 8 dereferenceable(16) %30, i8 0, i64 16, i1 false)
  invoke void @_ZN5boost10test_tools18output_test_stream4Impl14check_and_fillERNS0_16assertion_resultE(ptr noundef nonnull align 8 dereferenceable(568) %9, ptr noundef nonnull align 8 dereferenceable(24) %0)
          to label %31 unwind label %33

31:                                               ; preds = %_ZN5boost9unit_testeqIKcS2_EEbRKNS0_13basic_cstringIT_EERKNS3_IT0_EE.exit
  br i1 %3, label %32, label %35

32:                                               ; preds = %31
  invoke void @_ZN5boost10test_tools18output_test_stream5flushEv(ptr noundef nonnull align 8 dereferenceable(120) %1)
          to label %35 unwind label %33

33:                                               ; preds = %32, %_ZN5boost9unit_testeqIKcS2_EEbRKNS0_13basic_cstringIT_EERKNS3_IT0_EE.exit
  %34 = landingpad { ptr, i32 }
          cleanup
  tail call void @_ZN5boost10test_tools16assertion_resultD2Ev(ptr noundef nonnull align 8 dereferenceable(24) %0) #30
  resume { ptr, i32 } %34

35:                                               ; preds = %31, %32
  ret void
}